; Function Attrs: null_pointer_is_valid sspstrong uwtable
define internal void @dbeGetVisualInfo_Reply(ptr noundef %0, ptr noundef readonly captures(none) %1, ptr noundef captures(none) %2, ptr noundef %3, i32 noundef %4) #1 {
  %6 = getelementptr inbounds nuw i8, ptr %1, i64 8
  %7 = load ptr, ptr %6, align 8
  tail call void (ptr, i32, ptr, ...) @col_append_fstr(ptr noundef %7, i32 noundef 25, ptr noundef nonnull @.str.14965)
  %8 = load i32, ptr @hf_x11_reply, align 4
  %9 = tail call fastcc i32 @field8(ptr noundef %0, ptr noundef %2, ptr noundef %3, i32 noundef %8, i32 noundef %4)
  %10 = load i32, ptr @hf_x11_unused, align 4
  %11 = load i32, ptr %2, align 4
  %12 = tail call ptr @proto_tree_add_item(ptr noundef %3, i32 noundef %10, ptr noundef %0, i32 noundef %11, i32 noundef 1, i32 noundef 0)
  %13 = load i32, ptr %2, align 4
  %14 = add i32 %13, 1
  store i32 %14, ptr %2, align 4
  %15 = tail call zeroext i16 @tvb_get_uint16(ptr noundef %0, i32 noundef %14, i32 noundef %4)
  %16 = zext i16 %15 to i32
  %17 = load i32, ptr @hf_x11_reply_sequencenumber, align 4
  %18 = load i32, ptr %2, align 4
  %19 = tail call ptr (ptr, i32, ptr, i32, i32, i32, ptr, ...) @proto_tree_add_uint_format_value(ptr noundef %3, i32 noundef %17, ptr noundef %0, i32 noundef %18, i32 noundef 2, i32 noundef %16, ptr noundef nonnull @.str.14966, i32 noundef %16)
  %20 = load i32, ptr %2, align 4
  %21 = add i32 %20, 2
  store i32 %21, ptr %2, align 4
  %22 = load i32, ptr @hf_x11_replylength, align 4
  %23 = tail call ptr @proto_tree_add_item(ptr noundef %3, i32 noundef %22, ptr noundef %0, i32 noundef %21, i32 noundef 4, i32 noundef %4)
  %24 = load i32, ptr %2, align 4
  %25 = add i32 %24, 4
  store i32 %25, ptr %2, align 4
  %26 = tail call i32 @tvb_get_uint32(ptr noundef %0, i32 noundef %25, i32 noundef %4)
  %27 = load i32, ptr @hf_x11_dbe_GetVisualInfo_reply_n_supported_visuals, align 4
  %28 = load i32, ptr %2, align 4
  %29 = tail call ptr @proto_tree_add_item(ptr noundef %3, i32 noundef %27, ptr noundef %0, i32 noundef %28, i32 noundef 4, i32 noundef %4)
  %30 = load i32, ptr %2, align 4
  %31 = add i32 %30, 4
  store i32 %31, ptr %2, align 4
  %32 = load i32, ptr @hf_x11_unused, align 4
  %33 = tail call ptr @proto_tree_add_item(ptr noundef %3, i32 noundef %32, ptr noundef %0, i32 noundef %31, i32 noundef 20, i32 noundef 0)
  %34 = load i32, ptr %2, align 4
  %35 = add i32 %34, 20
  store i32 %35, ptr %2, align 4
  %36 = icmp sgt i32 %26, 0
  br i1 %36, label %.lr.ph.i, label %struct_dbe_VisualInfos.exit

.lr.ph.i:                                         ; preds = %5, %struct_dbe_VisualInfo.exit.i
  %37 = phi i32 [ %76, %struct_dbe_VisualInfo.exit.i ], [ %35, %5 ]
  %.022.i = phi i32 [ %77, %struct_dbe_VisualInfo.exit.i ], [ 0, %5 ]
  %38 = load i32, ptr @hf_x11_struct_dbe_VisualInfos, align 4
  %39 = tail call i32 @tvb_get_uint32(ptr noundef %0, i32 noundef %37, i32 noundef %4)
  %40 = shl i32 %39, 3
  %41 = or disjoint i32 %40, 4
  %42 = tail call ptr @proto_tree_add_item(ptr noundef %3, i32 noundef %38, ptr noundef %0, i32 noundef %37, i32 noundef %41, i32 noundef 0)
  %43 = load i32, ptr @ett_x11_rectangle, align 4
  %44 = tail call ptr @proto_item_add_subtree(ptr noundef %42, i32 noundef %43)
  %45 = load i32, ptr %2, align 4
  %46 = tail call i32 @tvb_get_uint32(ptr noundef %0, i32 noundef %45, i32 noundef %4)
  %47 = load i32, ptr @hf_x11_struct_dbe_VisualInfos_n_infos, align 4
  %48 = load i32, ptr %2, align 4
  %49 = tail call ptr @proto_tree_add_item(ptr noundef %44, i32 noundef %47, ptr noundef %0, i32 noundef %48, i32 noundef 4, i32 noundef %4)
  %50 = load i32, ptr %2, align 4
  %51 = add i32 %50, 4
  store i32 %51, ptr %2, align 4
  %52 = icmp sgt i32 %46, 0
  br i1 %52, label %.lr.ph.i.i, label %struct_dbe_VisualInfo.exit.i

.lr.ph.i.i:                                       ; preds = %.lr.ph.i, %.lr.ph.i.i
  %53 = phi i32 [ %74, %.lr.ph.i.i ], [ %51, %.lr.ph.i ]
  %.025.i.i = phi i32 [ %75, %.lr.ph.i.i ], [ 0, %.lr.ph.i ]
  %54 = load i32, ptr @hf_x11_struct_dbe_VisualInfo, align 4
  %55 = tail call ptr @proto_tree_add_item(ptr noundef %44, i32 noundef %54, ptr noundef %0, i32 noundef %53, i32 noundef 8, i32 noundef 0)
  %56 = load i32, ptr @ett_x11_rectangle, align 4
  %57 = tail call ptr @proto_item_add_subtree(ptr noundef %55, i32 noundef %56)
  %58 = load i32, ptr @hf_x11_struct_dbe_VisualInfo_visual_id, align 4
  %59 = load i32, ptr %2, align 4
  %60 = tail call ptr @proto_tree_add_item(ptr noundef %57, i32 noundef %58, ptr noundef %0, i32 noundef %59, i32 noundef 4, i32 noundef %4)
  %61 = load i32, ptr %2, align 4
  %62 = add i32 %61, 4
  store i32 %62, ptr %2, align 4
  %63 = load i32, ptr @hf_x11_struct_dbe_VisualInfo_depth, align 4
  %64 = tail call ptr @proto_tree_add_item(ptr noundef %57, i32 noundef %63, ptr noundef %0, i32 noundef %62, i32 noundef 1, i32 noundef %4)
  %65 = load i32, ptr %2, align 4
  %66 = add i32 %65, 1
  store i32 %66, ptr %2, align 4
  %67 = load i32, ptr @hf_x11_struct_dbe_VisualInfo_perf_level, align 4
  %68 = tail call ptr @proto_tree_add_item(ptr noundef %57, i32 noundef %67, ptr noundef %0, i32 noundef %66, i32 noundef 1, i32 noundef %4)
  %69 = load i32, ptr %2, align 4
  %70 = add i32 %69, 1
  store i32 %70, ptr %2, align 4
  %71 = load i32, ptr @hf_x11_unused, align 4
  %72 = tail call ptr @proto_tree_add_item(ptr noundef %57, i32 noundef %71, ptr noundef %0, i32 noundef %70, i32 noundef 2, i32 noundef 0)
  %73 = load i32, ptr %2, align 4
  %74 = add i32 %73, 2
  store i32 %74, ptr %2, align 4
  %75 = add nuw nsw i32 %.025.i.i, 1
  %exitcond.not.i.i = icmp eq i32 %75, %46
  br i1 %exitcond.not.i.i, label %struct_dbe_VisualInfo.exit.i, label %.lr.ph.i.i, !llvm.loop !56

struct_dbe_VisualInfo.exit.i:                     ; preds = %.lr.ph.i.i, %.lr.ph.i
  %76 = phi i32 [ %51, %.lr.ph.i ], [ %74, %.lr.ph.i.i ]
  %77 = add nuw nsw i32 %.022.i, 1
  %exitcond.not.i = icmp eq i32 %77, %26
  br i1 %exitcond.not.i, label %struct_dbe_VisualInfos.exit, label %.lr.ph.i, !llvm.loop !57

struct_dbe_VisualInfos.exit:                      ; preds = %struct_dbe_VisualInfo.exit.i, %5
  ret void
}